; Function Attrs: nounwind uwtable
define range(i32 -32, 1) i32 @PMIx_Info_list_xfer(ptr noundef %0, ptr noundef %1) local_unnamed_addr #0 {
  %3 = load i64, ptr getelementptr inbounds nuw (i8, ptr @pmix_infolist_t_class, i64 56), align 8, !tbaa !142
  %4 = tail call noalias noundef ptr @malloc(i64 noundef %3) #25
  %5 = load i32, ptr @pmix_class_init_epoch, align 4, !tbaa !139
  %6 = load i32, ptr getelementptr inbounds nuw (i8, ptr @pmix_infolist_t_class, i64 32), align 8, !tbaa !143
  %.not.i = icmp eq i32 %5, %6
  br i1 %.not.i, label %8, label %7

7:                                                ; preds = %2
  tail call void @pmix_class_initialize(ptr noundef nonnull @pmix_infolist_t_class) #24
  br label %8

8:                                                ; preds = %7, %2
  %.not22.i = icmp eq ptr %4, null
  br i1 %.not22.i, label %pmix_obj_new_tma.exit, label %9

9:                                                ; preds = %8
  %10 = tail call i32 @pthread_mutex_init(ptr noundef nonnull %4, ptr noundef null) #24
  %11 = getelementptr inbounds nuw i8, ptr %4, i64 40
  store ptr @pmix_infolist_t_class, ptr %11, align 8, !tbaa !46
  %12 = getelementptr inbounds nuw i8, ptr %4, i64 48
  store i32 1, ptr %12, align 8, !tbaa !144
  %13 = getelementptr inbounds nuw i8, ptr %4, i64 56
  %14 = getelementptr inbounds nuw i8, ptr %4, i64 96
  tail call void @llvm.memset.p0.i64(ptr noundef nonnull align 8 dereferenceable(32) %13, i8 0, i64 32, i1 false)
  tail call void @llvm.memset.p0.i64(ptr noundef nonnull align 8 dereferenceable(24) %14, i8 0, i64 24, i1 false)
  %15 = load ptr, ptr getelementptr inbounds nuw (i8, ptr @pmix_infolist_t_class, i64 40), align 8, !tbaa !145
  %16 = load ptr, ptr %15, align 8, !tbaa !26
  %.not6.i.i = icmp eq ptr %16, null
  br i1 %.not6.i.i, label %.loopexit, label %.lr.ph.i.i

.lr.ph.i.i:                                       ; preds = %9, %.lr.ph.i.i
  %17 = phi ptr [ %19, %.lr.ph.i.i ], [ %16, %9 ]
  %.07.i.i = phi ptr [ %18, %.lr.ph.i.i ], [ %15, %9 ]
  tail call void %17(ptr noundef nonnull %4) #24
  %18 = getelementptr inbounds nuw i8, ptr %.07.i.i, i64 8
  %19 = load ptr, ptr %18, align 8, !tbaa !26
  %.not.i.i = icmp eq ptr %19, null
  br i1 %.not.i.i, label %.loopexit, label %.lr.ph.i.i, !llvm.loop !146

.loopexit:                                        ; preds = %.lr.ph.i.i, %9
  %20 = getelementptr inbounds nuw i8, ptr %4, i64 144
  %21 = tail call i32 @PMIx_Info_xfer(ptr noundef nonnull %20, ptr noundef %1) #24
  %22 = getelementptr inbounds nuw i8, ptr %0, i64 120
  %23 = getelementptr inbounds nuw i8, ptr %0, i64 248
  %24 = load ptr, ptr %23, align 8, !tbaa !147
  %25 = getelementptr inbounds nuw i8, ptr %4, i64 128
  store ptr %24, ptr %25, align 8, !tbaa !147
  %26 = getelementptr inbounds nuw i8, ptr %24, i64 120
  store volatile ptr %4, ptr %26, align 8, !tbaa !148
  %27 = getelementptr inbounds nuw i8, ptr %4, i64 120
  store ptr %22, ptr %27, align 8, !tbaa !148
  store ptr %4, ptr %23, align 8, !tbaa !147
  %28 = getelementptr inbounds nuw i8, ptr %0, i64 264
  %29 = load volatile i64, ptr %28, align 8, !tbaa !149
  %30 = add i64 %29, 1
  store volatile i64 %30, ptr %28, align 8, !tbaa !149
  br label %pmix_obj_new_tma.exit

pmix_obj_new_tma.exit:                            ; preds = %8, %.loopexit
  %.0 = phi i32 [ 0, %.loopexit ], [ -32, %8 ]
  ret i32 %.0
}